#include <math.h>
#include <stdio.h>
#include <stdlib.h>
#include <string.h>

int main()
{
	int a[200];
	int i,j,n,m,temp,temp2;
	scanf("%d%d",&n,&m);
	for (i=1; i<=n; i++) scanf("%d",&a[i]);
	for (j=1; j<=m; j++) {
		temp=a[n];
		for (i=n; i>=2; i--) {
			temp2=a[i];
			a[i]=a[i-1];
			a[i-1]=temp2;
		}
		a[1]=temp;
	}
	for (i=1; i<n; i++) printf("%d ",a[i]);
	printf("%d",a[n]);
	return 0;
}